ccopy_reg
_reconstructor
p0
(ccell_modelling.automata
NK_Automata
p1
c__builtin__
object
p2
Ntp3
Rp4
(dp5
S'stability'
p6
F0.78125
sS'stateSpan'
p7
(dp8
S'10000'
p9
S'01011'
p10
sS'10001'
p11
S'11010'
p12
sS'10101'
p13
S'10010'
p14
sS'10100'
p15
S'01011'
p16
sS'01101'
p17
S'00011'
p18
sS'01100'
p19
S'11010'
p20
sS'11111'
p21
S'00110'
p22
sS'11110'
p23
S'11111'
p24
sS'11010'
p25
S'11111'
p26
sS'11011'
p27
S'01110'
p28
sS'01000'
p29
S'11010'
p30
sS'01001'
p31
S'01011'
p32
sS'00111'
p33
S'10011'
p34
sS'00110'
p35
S'01010'
p36
sS'00010'
p37
S'01010'
p38
sS'00011'
p39
S'11011'
p40
sS'10011'
p41
S'11110'
p42
sS'10010'
p43
S'01111'
p44
sS'10110'
p45
S'01111'
p46
sS'10111'
p47
S'10110'
p48
sS'01110'
p49
S'11010'
p50
sS'01111'
p51
S'00011'
p52
sS'11001'
p53
S'01010'
p54
sS'11000'
p55
S'11011'
p56
sS'11100'
p57
S'11011'
p58
sS'11101'
p59
S'00010'
p60
sS'01011'
p61
S'01011'
p62
sS'01010'
p63
S'11010'
p64
sS'00001'
p65
S'11011'
p66
sS'00000'
p67
S'01010'
p68
sS'00100'
p69
S'01010'
p70
sS'00101'
p71
S'10011'
p72
ssS'attractorDict'
p73
(dp74
I1
(lp75
I4
aI24
asI2
(lp76
I1
aI3
assS'K'
p77
I2
sS'ordinalNumber'
p78
I-1
sS'N'
p79
I5
sS'basinAmount'
p80
I2
sS'functionsList'
p81
(lp82
g0
(ccell_modelling.boolfunction
BoolFunction
p83
g2
Ntp84
Rp85
(dp86
S'valuesString'
p87
S'0110'
p88
sg77
I2
sbag0
(g83
g2
Ntp89
Rp90
(dp91
g87
S'1110'
p92
sg77
I2
sbag0
(g83
g2
Ntp93
Rp94
(dp95
g87
S'0001'
p96
sg77
I2
sbag0
(g83
g2
Ntp97
Rp98
(dp99
g87
S'1111'
p100
sg77
I2
sbag0
(g83
g2
Ntp101
Rp102
(dp103
g87
S'0110'
p104
sg77
I2
sbasS'expectedReturnTime'
p105
F2.4444444444444446
sS'stateList'
p106
(lp107
g0
(ccell_modelling.state
State
p108
g2
Ntp109
Rp110
(dp111
S'firstAttractorStateNumber'
p112
I10
sS'weight'
p113
I0
sS'inBasin'
p114
I01
sS'basinNumber'
p115
I1
sS'inAttractor'
p116
I00
sS'stateNumber'
p117
I0
sS'dimension'
p118
I5
sbag0
(g108
g2
Ntp119
Rp120
(dp121
g112
I26
sg113
I0
sg114
I01
sg115
I1
sg116
I00
sg117
I1
sg118
I5
sbag0
(g108
g2
Ntp122
Rp123
(dp124
g112
I10
sg113
I0
sg114
I01
sg115
I1
sg116
I00
sg117
I2
sg118
I5
sbag0
(g108
g2
Ntp125
Rp126
(dp127
g112
I26
sg113
I0
sg114
I01
sg115
I1
sg116
I00
sg117
I3
sg118
I5
sbag0
(g108
g2
Ntp128
Rp129
(dp130
g112
I10
sg113
I0
sg114
I01
sg115
I1
sg116
I00
sg117
I4
sg118
I5
sbag0
(g108
g2
Ntp131
Rp132
(dp133
g112
I31
sg113
I0
sg114
I01
sg115
I1
sg116
I00
sg117
I5
sg118
I5
sbag0
(g108
g2
Ntp134
Rp135
(dp136
g112
Nsg113
I0
sg114
I00
sg115
I1
sg116
I01
sg117
I6
sg118
I5
sbag0
(g108
g2
Ntp137
Rp138
(dp139
g112
I31
sg113
I0
sg114
I01
sg115
I1
sg116
I00
sg117
I7
sg118
I5
sbag0
(g108
g2
Ntp140
Rp141
(dp142
g112
I26
sg113
I0
sg114
I01
sg115
I1
sg116
I00
sg117
I8
sg118
I5
sbag0
(g108
g2
Ntp143
Rp144
(dp145
g112
I11
sg113
I0
sg114
I01
sg115
I2
sg116
I00
sg117
I9
sg118
I5
sbag0
(g108
g2
Ntp146
Rp147
(dp148
g112
Nsg113
I5
sg114
I00
sg115
I1
sg116
I01
sg117
I10
sg118
I5
sbag0
(g108
g2
Ntp149
Rp150
(dp151
g112
Nsg113
I3
sg114
I00
sg115
I2
sg116
I01
sg117
I11
sg118
I5
sbag0
(g108
g2
Ntp152
Rp153
(dp154
g112
I26
sg113
I0
sg114
I01
sg115
I1
sg116
I00
sg117
I12
sg118
I5
sbag0
(g108
g2
Ntp155
Rp156
(dp157
g112
I26
sg113
I0
sg114
I01
sg115
I1
sg116
I00
sg117
I13
sg118
I5
sbag0
(g108
g2
Ntp158
Rp159
(dp160
g112
I26
sg113
I0
sg114
I01
sg115
I1
sg116
I00
sg117
I14
sg118
I5
sbag0
(g108
g2
Ntp161
Rp162
(dp163
g112
I26
sg113
I0
sg114
I01
sg115
I1
sg116
I00
sg117
I15
sg118
I5
sbag0
(g108
g2
Ntp164
Rp165
(dp166
g112
I11
sg113
I0
sg114
I01
sg115
I2
sg116
I00
sg117
I16
sg118
I5
sbag0
(g108
g2
Ntp167
Rp168
(dp169
g112
I26
sg113
I0
sg114
I01
sg115
I1
sg116
I00
sg117
I17
sg118
I5
sbag0
(g108
g2
Ntp170
Rp171
(dp172
g112
I26
sg113
I0
sg114
I01
sg115
I1
sg116
I00
sg117
I18
sg118
I5
sbag0
(g108
g2
Ntp173
Rp174
(dp175
g112
I31
sg113
I0
sg114
I01
sg115
I1
sg116
I00
sg117
I19
sg118
I5
sbag0
(g108
g2
Ntp176
Rp177
(dp178
g112
I11
sg113
I0
sg114
I01
sg115
I2
sg116
I00
sg117
I20
sg118
I5
sbag0
(g108
g2
Ntp179
Rp180
(dp181
g112
I26
sg113
I0
sg114
I01
sg115
I1
sg116
I00
sg117
I21
sg118
I5
sbag0
(g108
g2
Ntp182
Rp183
(dp184
g112
I26
sg113
I0
sg114
I01
sg115
I1
sg116
I00
sg117
I22
sg118
I5
sbag0
(g108
g2
Ntp185
Rp186
(dp187
g112
I26
sg113
I0
sg114
I01
sg115
I1
sg116
I00
sg117
I23
sg118
I5
sbag0
(g108
g2
Ntp188
Rp189
(dp190
g112
I26
sg113
I0
sg114
I01
sg115
I1
sg116
I00
sg117
I24
sg118
I5
sbag0
(g108
g2
Ntp191
Rp192
(dp193
g112
I10
sg113
I0
sg114
I01
sg115
I1
sg116
I00
sg117
I25
sg118
I5
sbag0
(g108
g2
Ntp194
Rp195
(dp196
g112
Nsg113
I15
sg114
I00
sg115
I1
sg116
I01
sg117
I26
sg118
I5
sbag0
(g108
g2
Ntp197
Rp198
(dp199
g112
I26
sg113
I0
sg114
I01
sg115
I1
sg116
I00
sg117
I27
sg118
I5
sbag0
(g108
g2
Ntp200
Rp201
(dp202
g112
I26
sg113
I0
sg114
I01
sg115
I1
sg116
I00
sg117
I28
sg118
I5
sbag0
(g108
g2
Ntp203
Rp204
(dp205
g112
I10
sg113
I0
sg114
I01
sg115
I1
sg116
I00
sg117
I29
sg118
I5
sbag0
(g108
g2
Ntp206
Rp207
(dp208
g112
I31
sg113
I0
sg114
I01
sg115
I1
sg116
I00
sg117
I30
sg118
I5
sbag0
(g108
g2
Ntp209
Rp210
(dp211
g112
Nsg113
I4
sg114
I00
sg115
I1
sg116
I01
sg117
I31
sg118
I5
sbasS'linksList'
p212
(lp213
(lp214
I1
aI4
aa(lp215
I4
aI2
aa(lp216
I3
aI0
aa(lp217
I2
aI3
aa(lp218
I0
aI4
aasb.