ccopy_reg
_reconstructor
p0
(ccell_modelling.automata
NK_Automata
p1
c__builtin__
object
p2
Ntp3
Rp4
(dp5
S'stability'
p6
F1.0
sS'stateSpan'
p7
(dp8
S'10000'
p9
S'11010'
p10
sS'10001'
p11
S'11110'
p12
sS'10101'
p13
S'11110'
p14
sS'10100'
p15
S'11010'
p16
sS'01101'
p17
S'11101'
p18
sS'01100'
p19
S'11101'
p20
sS'11111'
p21
S'01111'
p22
sS'11110'
p23
S'01111'
p24
sS'11010'
p25
S'00111'
p26
sS'11011'
p27
S'00111'
p28
sS'01000'
p29
S'11101'
p30
sS'01001'
p31
S'11101'
p32
sS'00111'
p33
S'01101'
p34
sS'00110'
p35
S'01001'
p36
sS'00010'
p37
S'00001'
p38
sS'00011'
p39
S'00101'
p40
sS'10011'
p41
S'00111'
p42
sS'10010'
p43
S'00011'
p44
sS'10110'
p45
S'01011'
p46
sS'10111'
p47
S'01111'
p48
sS'01110'
p49
S'01101'
p50
sS'01111'
p51
S'01101'
p52
sS'11001'
p53
S'11110'
p54
sS'11000'
p55
S'11110'
p56
sS'11100'
p57
S'11110'
p58
sS'11101'
p59
S'11110'
p60
sS'01011'
p61
S'00101'
p62
sS'01010'
p63
S'00101'
p64
sS'00001'
p65
S'11101'
p66
sS'00000'
p67
S'11001'
p68
sS'00100'
p69
S'11001'
p70
sS'00101'
p71
S'11101'
p72
ssS'attractorDict'
p73
(dp74
I1
(lp75
I4
aI28
assS'K'
p76
I2
sS'ordinalNumber'
p77
I-1
sS'N'
p78
I5
sS'basinAmount'
p79
I1
sS'functionsList'
p80
(lp81
g0
(ccell_modelling.boolfunction
BoolFunction
p82
g2
Ntp83
Rp84
(dp85
S'valuesString'
p86
S'1010'
p87
sg76
I2
sbag0
(g82
g2
Ntp88
Rp89
(dp90
g86
S'1011'
p91
sg76
I2
sbag0
(g82
g2
Ntp92
Rp93
(dp94
g86
S'0111'
p95
sg76
I2
sbag0
(g82
g2
Ntp96
Rp97
(dp98
g86
S'0011'
p99
sg76
I2
sbag0
(g82
g2
Ntp100
Rp101
(dp102
g86
S'1011'
p103
sg76
I2
sbasS'expectedReturnTime'
p104
F1.6428571428571428
sS'stateList'
p105
(lp106
g0
(ccell_modelling.state
State
p107
g2
Ntp108
Rp109
(dp110
S'firstAttractorStateNumber'
p111
I30
sS'weight'
p112
I0
sS'inBasin'
p113
I01
sS'basinNumber'
p114
I1
sS'inAttractor'
p115
I00
sS'stateNumber'
p116
I0
sS'dimension'
p117
I5
sbag0
(g107
g2
Ntp118
Rp119
(dp120
g111
I29
sg112
I0
sg113
I01
sg114
I1
sg115
I00
sg116
I1
sg117
I5
sbag0
(g107
g2
Ntp121
Rp122
(dp123
g111
I29
sg112
I0
sg113
I01
sg114
I1
sg115
I00
sg116
I2
sg117
I5
sbag0
(g107
g2
Ntp124
Rp125
(dp126
g111
I29
sg112
I0
sg113
I01
sg114
I1
sg115
I00
sg116
I3
sg117
I5
sbag0
(g107
g2
Ntp127
Rp128
(dp129
g111
I30
sg112
I0
sg113
I01
sg114
I1
sg115
I00
sg116
I4
sg117
I5
sbag0
(g107
g2
Ntp130
Rp131
(dp132
g111
I29
sg112
I0
sg113
I01
sg114
I1
sg115
I00
sg116
I5
sg117
I5
sbag0
(g107
g2
Ntp133
Rp134
(dp135
g111
I29
sg112
I0
sg113
I01
sg114
I1
sg115
I00
sg116
I6
sg117
I5
sbag0
(g107
g2
Ntp136
Rp137
(dp138
g111
I13
sg112
I0
sg113
I01
sg114
I1
sg115
I00
sg116
I7
sg117
I5
sbag0
(g107
g2
Ntp139
Rp140
(dp141
g111
I29
sg112
I0
sg113
I01
sg114
I1
sg115
I00
sg116
I8
sg117
I5
sbag0
(g107
g2
Ntp142
Rp143
(dp144
g111
I29
sg112
I0
sg113
I01
sg114
I1
sg115
I00
sg116
I9
sg117
I5
sbag0
(g107
g2
Ntp145
Rp146
(dp147
g111
I29
sg112
I0
sg113
I01
sg114
I1
sg115
I00
sg116
I10
sg117
I5
sbag0
(g107
g2
Ntp148
Rp149
(dp150
g111
I29
sg112
I0
sg113
I01
sg114
I1
sg115
I00
sg116
I11
sg117
I5
sbag0
(g107
g2
Ntp151
Rp152
(dp153
g111
I29
sg112
I0
sg113
I01
sg114
I1
sg115
I00
sg116
I12
sg117
I5
sbag0
(g107
g2
Ntp154
Rp155
(dp156
g111
Nsg112
I7
sg113
I00
sg114
I1
sg115
I01
sg116
I13
sg117
I5
sbag0
(g107
g2
Ntp157
Rp158
(dp159
g111
I13
sg112
I0
sg113
I01
sg114
I1
sg115
I00
sg116
I14
sg117
I5
sbag0
(g107
g2
Ntp160
Rp161
(dp162
g111
Nsg112
I2
sg113
I00
sg114
I1
sg115
I01
sg116
I15
sg117
I5
sbag0
(g107
g2
Ntp163
Rp164
(dp165
g111
I13
sg112
I0
sg113
I01
sg114
I1
sg115
I00
sg116
I16
sg117
I5
sbag0
(g107
g2
Ntp166
Rp167
(dp168
g111
I30
sg112
I0
sg113
I01
sg114
I1
sg115
I00
sg116
I17
sg117
I5
sbag0
(g107
g2
Ntp169
Rp170
(dp171
g111
I29
sg112
I0
sg113
I01
sg114
I1
sg115
I00
sg116
I18
sg117
I5
sbag0
(g107
g2
Ntp172
Rp173
(dp174
g111
I13
sg112
I0
sg113
I01
sg114
I1
sg115
I00
sg116
I19
sg117
I5
sbag0
(g107
g2
Ntp175
Rp176
(dp177
g111
I13
sg112
I0
sg113
I01
sg114
I1
sg115
I00
sg116
I20
sg117
I5
sbag0
(g107
g2
Ntp178
Rp179
(dp180
g111
I30
sg112
I0
sg113
I01
sg114
I1
sg115
I00
sg116
I21
sg117
I5
sbag0
(g107
g2
Ntp181
Rp182
(dp183
g111
I29
sg112
I0
sg113
I01
sg114
I1
sg115
I00
sg116
I22
sg117
I5
sbag0
(g107
g2
Ntp184
Rp185
(dp186
g111
I15
sg112
I0
sg113
I01
sg114
I1
sg115
I00
sg116
I23
sg117
I5
sbag0
(g107
g2
Ntp187
Rp188
(dp189
g111
I30
sg112
I0
sg113
I01
sg114
I1
sg115
I00
sg116
I24
sg117
I5
sbag0
(g107
g2
Ntp190
Rp191
(dp192
g111
I30
sg112
I0
sg113
I01
sg114
I1
sg115
I00
sg116
I25
sg117
I5
sbag0
(g107
g2
Ntp193
Rp194
(dp195
g111
I13
sg112
I0
sg113
I01
sg114
I1
sg115
I00
sg116
I26
sg117
I5
sbag0
(g107
g2
Ntp196
Rp197
(dp198
g111
I13
sg112
I0
sg113
I01
sg114
I1
sg115
I00
sg116
I27
sg117
I5
sbag0
(g107
g2
Ntp199
Rp200
(dp201
g111
I30
sg112
I0
sg113
I01
sg114
I1
sg115
I00
sg116
I28
sg117
I5
sbag0
(g107
g2
Ntp202
Rp203
(dp204
g111
Nsg112
I12
sg113
I00
sg114
I1
sg115
I01
sg116
I29
sg117
I5
sbag0
(g107
g2
Ntp205
Rp206
(dp207
g111
Nsg112
I7
sg113
I00
sg114
I1
sg115
I01
sg116
I30
sg117
I5
sbag0
(g107
g2
Ntp208
Rp209
(dp210
g111
I15
sg112
I0
sg113
I01
sg114
I1
sg115
I00
sg116
I31
sg117
I5
sbasS'linksList'
p211
(lp212
(lp213
I1
aI3
aa(lp214
I2
aI3
aa(lp215
I4
aI1
aa(lp216
I0
aI4
aa(lp217
I3
aI0
aasb.